target datalayout = "e-m:e-p270:32:32-p271:32:32-p272:64:64-i64:64-i128:128-f80:128-n8:16:32:64-S128"
target triple = "x86_64-pc-linux-gnu"

%struct.ForEachState = type { ptr, i32 }
%struct.List = type { i32, i32, i32, ptr, [0 x %union.ListCell] }
%union.ListCell = type { ptr }
%struct.Subscription = type { i32, i32, i64, ptr, i32, i8, i8, i8, i8, i8, i8, i8, i8, i8, ptr, ptr, ptr, ptr, ptr }

@table_states_validity = internal global i32 0, align 4
@table_states_not_ready = internal global ptr null, align 8
@MySubscription = external global ptr, align 8
@FetchTableStates.has_subrels = internal global i8 0, align 1
@CacheMemoryContext = external global ptr, align 8
@CurrentMemoryContext = external global ptr, align 8

; Function Attrs: inlinehint nounwind uwtable
define internal ptr @MemoryContextSwitchTo(ptr noundef %0) #4 {
  %2 = alloca ptr, align 8
  %3 = alloca ptr, align 8
  store ptr %0, ptr %2, align 8
  call void @llvm.lifetime.start.p0(i64 8, ptr %3) #12
  %4 = load ptr, ptr @CurrentMemoryContext, align 8
  store ptr %4, ptr %3, align 8
  %5 = load ptr, ptr %2, align 8
  store ptr %5, ptr @CurrentMemoryContext, align 8
  %6 = load ptr, ptr %3, align 8
  call void @llvm.lifetime.end.p0(i64 8, ptr %3) #12
  ret ptr %6
}

; Function Attrs: nounwind uwtable
define internal zeroext i1 @FetchTableStates(ptr noundef %0) #0 {
  %2 = alloca ptr, align 8
  %3 = alloca ptr, align 8
  %4 = alloca ptr, align 8
  %5 = alloca ptr, align 8
  %6 = alloca ptr, align 8
  %7 = alloca %struct.ForEachState, align 8
  store ptr %0, ptr %2, align 8
  %8 = load ptr, ptr %2, align 8
  store i8 0, ptr %8, align 1
  %9 = load i32, ptr @table_states_validity, align 4
  %10 = icmp ne i32 %9, 2
  br i1 %10, label %11, label %82

11:                                               ; preds = %1
  call void @llvm.lifetime.start.p0(i64 8, ptr %3) #12
  call void @llvm.lifetime.start.p0(i64 8, ptr %4) #12
  call void @llvm.lifetime.start.p0(i64 8, ptr %5) #12
  call void @llvm.lifetime.start.p0(i64 8, ptr %6) #12
  store i32 1, ptr @table_states_validity, align 4
  %12 = load ptr, ptr @table_states_not_ready, align 8
  call void @list_free_deep(ptr noundef %12)
  store ptr null, ptr @table_states_not_ready, align 8
  %13 = call zeroext i1 @IsTransactionState()
  br i1 %13, label %16, label %14

14:                                               ; preds = %11
  call void @StartTransactionCommand()
  %15 = load ptr, ptr %2, align 8
  store i8 1, ptr %15, align 1
  br label %16

16:                                               ; preds = %14, %11
  %17 = load ptr, ptr @MySubscription, align 8
  %18 = getelementptr inbounds nuw %struct.Subscription, ptr %17, i32 0, i32 0
  %19 = load i32, ptr %18, align 8
  %20 = call ptr @GetSubscriptionRelations(i32 noundef %19, i1 noundef zeroext true)
  store ptr %20, ptr %4, align 8
  %21 = load ptr, ptr @CacheMemoryContext, align 8
  %22 = call ptr @MemoryContextSwitchTo(ptr noundef %21)
  store ptr %22, ptr %3, align 8
  call void @llvm.lifetime.start.p0(i64 16, ptr %7) #12
  %23 = getelementptr inbounds nuw %struct.ForEachState, ptr %7, i32 0, i32 0
  %24 = load ptr, ptr %4, align 8
  store ptr %24, ptr %23, align 8
  %25 = getelementptr inbounds nuw %struct.ForEachState, ptr %7, i32 0, i32 1
  store i32 0, ptr %25, align 8
  %26 = getelementptr i8, ptr %7, i64 12
  call void @llvm.memset.p0.i64(ptr align 4 %26, i8 0, i64 4, i1 false)
  br label %27

27:                                               ; preds = %61, %16
  %28 = getelementptr inbounds nuw %struct.ForEachState, ptr %7, i32 0, i32 0
  %29 = load ptr, ptr %28, align 8
  %30 = icmp ne ptr %29, null
  br i1 %30, label %31, label %48

31:                                               ; preds = %27
  %32 = getelementptr inbounds nuw %struct.ForEachState, ptr %7, i32 0, i32 1
  %33 = load i32, ptr %32, align 8
  %34 = getelementptr inbounds nuw %struct.ForEachState, ptr %7, i32 0, i32 0
  %35 = load ptr, ptr %34, align 8
  %36 = getelementptr inbounds nuw %struct.List, ptr %35, i32 0, i32 1
  %37 = load i32, ptr %36, align 4
  %38 = icmp slt i32 %33, %37
  br i1 %38, label %39, label %48

39:                                               ; preds = %31
  %40 = getelementptr inbounds nuw %struct.ForEachState, ptr %7, i32 0, i32 0
  %41 = load ptr, ptr %40, align 8
  %42 = getelementptr inbounds nuw %struct.List, ptr %41, i32 0, i32 3
  %43 = load ptr, ptr %42, align 8
  %44 = getelementptr inbounds nuw %struct.ForEachState, ptr %7, i32 0, i32 1
  %45 = load i32, ptr %44, align 8
  %46 = sext i32 %45 to i64
  %47 = getelementptr inbounds %union.ListCell, ptr %43, i64 %46
  store ptr %47, ptr %5, align 8
  br label %49

48:                                               ; preds = %31, %27
  store ptr null, ptr %5, align 8
  br label %49

49:                                               ; preds = %48, %39
  %50 = phi i32 [ 1, %39 ], [ 0, %48 ]
  %51 = icmp ne i32 %50, 0
  br i1 %51, label %53, label %52

52:                                               ; preds = %49
  call void @llvm.lifetime.end.p0(i64 16, ptr %7) #12
  br label %65

53:                                               ; preds = %49
  %54 = call ptr @palloc(i64 noundef 24)
  store ptr %54, ptr %6, align 8
  %55 = load ptr, ptr %6, align 8
  %56 = load ptr, ptr %5, align 8
  %57 = load ptr, ptr %56, align 8
  call void @llvm.memcpy.p0.p0.i64(ptr align 8 %55, ptr align 1 %57, i64 24, i1 false)
  %58 = load ptr, ptr @table_states_not_ready, align 8
  %59 = load ptr, ptr %6, align 8
  %60 = call ptr @lappend(ptr noundef %58, ptr noundef %59)
  store ptr %60, ptr @table_states_not_ready, align 8
  br label %61

61:                                               ; preds = %53
  %62 = getelementptr inbounds nuw %struct.ForEachState, ptr %7, i32 0, i32 1
  %63 = load i32, ptr %62, align 8
  %64 = add i32 %63, 1
  store i32 %64, ptr %62, align 8
  br label %27, !llvm.loop !11

65:                                               ; preds = %52
  %66 = load ptr, ptr %3, align 8
  %67 = call ptr @MemoryContextSwitchTo(ptr noundef %66)
  %68 = load ptr, ptr @table_states_not_ready, align 8
  %69 = icmp ne ptr %68, null
  br i1 %69, label %75, label %70

70:                                               ; preds = %65
  %71 = load ptr, ptr @MySubscription, align 8
  %72 = getelementptr inbounds nuw %struct.Subscription, ptr %71, i32 0, i32 0
  %73 = load i32, ptr %72, align 8
  %74 = call zeroext i1 @HasSubscriptionRelations(i32 noundef %73)
  br label %75

75:                                               ; preds = %70, %65
  %76 = phi i1 [ true, %65 ], [ %74, %70 ]
  %77 = zext i1 %76 to i8
  store i8 %77, ptr @FetchTableStates.has_subrels, align 1
  %78 = load i32, ptr @table_states_validity, align 4
  %79 = icmp eq i32 %78, 1
  br i1 %79, label %80, label %81

80:                                               ; preds = %75
  store i32 2, ptr @table_states_validity, align 4
  br label %81

81:                                               ; preds = %80, %75
  call void @llvm.lifetime.end.p0(i64 8, ptr %6) #12
  call void @llvm.lifetime.end.p0(i64 8, ptr %5) #12
  call void @llvm.lifetime.end.p0(i64 8, ptr %4) #12
  call void @llvm.lifetime.end.p0(i64 8, ptr %3) #12
  br label %82

82:                                               ; preds = %81, %1
  %83 = load i8, ptr @FetchTableStates.has_subrels, align 1, !range !6, !noundef !7
  %84 = trunc i8 %83 to i1
  ret i1 %84
}