; Function Attrs: nounwind uwtable
define internal fastcc zeroext i1 @FetchTableStates(ptr noundef nonnull writeonly captures(none) initializes((0, 1)) %0) unnamed_addr #1 {
  store i8 0, ptr %0, align 1
  %2 = load i32, ptr @table_states_validity, align 4
  %.not = icmp eq i32 %2, 2
  br i1 %.not, label %._crit_edge22, label %3

._crit_edge22:                                    ; preds = %1
  %.pre = load i8, ptr @FetchTableStates.has_subrels, align 1, !range !9
  br label %37

3:                                                ; preds = %1
  store i32 1, ptr @table_states_validity, align 4
  %4 = load ptr, ptr @table_states_not_ready, align 8
  tail call void @list_free_deep(ptr noundef %4) #12
  store ptr null, ptr @table_states_not_ready, align 8
  %5 = tail call zeroext i1 @IsTransactionState() #12
  br i1 %5, label %7, label %6

6:                                                ; preds = %3
  tail call void @StartTransactionCommand() #12
  store i8 1, ptr %0, align 1
  br label %7

7:                                                ; preds = %6, %3
  %8 = load ptr, ptr @MySubscription, align 8
  %9 = load i32, ptr %8, align 8
  %10 = tail call ptr @GetSubscriptionRelations(i32 noundef %9, i1 noundef zeroext true) #12
  %11 = load ptr, ptr @CacheMemoryContext, align 8
  %12 = load ptr, ptr @CurrentMemoryContext, align 8
  store ptr %11, ptr @CurrentMemoryContext, align 8
  %13 = getelementptr inbounds nuw i8, ptr %10, i64 4
  %.not12 = icmp eq ptr %10, null
  br i1 %.not12, label %._crit_edgethread-pre-split, label %.lr.ph

.lr.ph:                                           ; preds = %7
  %14 = getelementptr inbounds nuw i8, ptr %10, i64 16
  %15 = load i32, ptr %13, align 4
  %16 = icmp sgt i32 %15, 0
  br i1 %16, label %.lr.ph20, label %._crit_edgethread-pre-split

._crit_edgethread-pre-split:                      ; preds = %7, %.lr.ph
  %.pr = load ptr, ptr @table_states_not_ready, align 8
  br label %._crit_edge

._crit_edge:                                      ; preds = %.lr.ph20, %._crit_edgethread-pre-split
  %17 = phi ptr [ %.pr, %._crit_edgethread-pre-split ], [ %23, %.lr.ph20 ]
  store ptr %12, ptr @CurrentMemoryContext, align 8
  %.not14 = icmp eq ptr %17, null
  br i1 %.not14, label %27, label %32

.lr.ph20:                                         ; preds = %.lr.ph, %.lr.ph20
  %indvars.iv = phi i64 [ %indvars.iv.next, %.lr.ph20 ], [ 0, %.lr.ph ]
  %18 = load ptr, ptr %14, align 8
  %19 = getelementptr inbounds nuw %union.ListCell, ptr %18, i64 %indvars.iv
  %20 = tail call ptr @palloc(i64 noundef 24) #12
  %21 = load ptr, ptr %19, align 8
  tail call void @llvm.memcpy.p0.p0.i64(ptr noundef nonnull align 8 dereferenceable(24) %20, ptr noundef nonnull align 1 dereferenceable(24) %21, i64 24, i1 false)
  %22 = load ptr, ptr @table_states_not_ready, align 8
  %23 = tail call ptr @lappend(ptr noundef %22, ptr noundef nonnull %20) #12
  store ptr %23, ptr @table_states_not_ready, align 8
  %indvars.iv.next = add nuw nsw i64 %indvars.iv, 1
  %24 = load i32, ptr %13, align 4
  %25 = sext i32 %24 to i64
  %26 = icmp slt i64 %indvars.iv.next, %25
  br i1 %26, label %.lr.ph20, label %._crit_edge

27:                                               ; preds = %._crit_edge
  %28 = load ptr, ptr @MySubscription, align 8
  %29 = load i32, ptr %28, align 8
  %30 = tail call zeroext i1 @HasSubscriptionRelations(i32 noundef %29) #12
  %31 = zext i1 %30 to i8
  br label %32

32:                                               ; preds = %27, %._crit_edge
  %33 = phi i8 [ 1, %._crit_edge ], [ %31, %27 ]
  store i8 %33, ptr @FetchTableStates.has_subrels, align 1
  %34 = load i32, ptr @table_states_validity, align 4
  %35 = icmp eq i32 %34, 1
  br i1 %35, label %36, label %37

36:                                               ; preds = %32
  store i32 2, ptr @table_states_validity, align 4
  br label %37

37:                                               ; preds = %._crit_edge22, %32, %36
  %38 = phi i8 [ %.pre, %._crit_edge22 ], [ %33, %32 ], [ %33, %36 ]
  %39 = trunc nuw i8 %38 to i1
  ret i1 %39
}